target datalayout = "e-m:e-p270:32:32-p271:32:32-p272:64:64-i64:64-i128:128-f80:128-n8:16:32:64-S128"
target triple = "x86_64-pc-linux-gnu"

@.str.3 = private unnamed_addr constant [2 x i8] c"\0A\00", align 1
@.str.4 = private unnamed_addr constant [36 x i8] c"    abc9_ops [options] [selection]\0A\00", align 1
@.str.5 = private unnamed_addr constant [81 x i8] c"This pass contains a set of supporting operations for use during ABC technology\0A\00", align 1
@.str.6 = private unnamed_addr constant [81 x i8] c"mapping, and is expected to be called in conjunction with other operations from\0A\00", align 1
@.str.7 = private unnamed_addr constant [68 x i8] c"the `abc9' script pass. Only fully-selected modules are supported.\0A\00", align 1
@.str.8 = private unnamed_addr constant [12 x i8] c"    -check\0A\00", align 1
@.str.9 = private unnamed_addr constant [75 x i8] c"        check that the design is valid, e.g. (* abc9_box_id *) values are\0A\00", align 1
@.str.10 = private unnamed_addr constant [80 x i8] c"        unique, (* abc9_carry *) is only given for one input/output port, etc.\0A\00", align 1
@.str.11 = private unnamed_addr constant [16 x i8] c"    -prep_hier\0A\00", align 1
@.str.12 = private unnamed_addr constant [76 x i8] c"        derive all used (* abc9_box *) or (* abc9_flop *) (if -dff option)\0A\00", align 1
@.str.13 = private unnamed_addr constant [79 x i8] c"        whitebox modules. with (* abc9_flop *) modules, only those containing\0A\00", align 1
@.str.14 = private unnamed_addr constant [73 x i8] c"        $dff/$_DFF_[NP]_ cells with zero initial state -- due to an ABC\0A\00", align 1
@.str.15 = private unnamed_addr constant [40 x i8] c"        limitation -- will be derived.\0A\00", align 1
@.str.16 = private unnamed_addr constant [18 x i8] c"    -prep_bypass\0A\00", align 1
@.str.17 = private unnamed_addr constant [79 x i8] c"        create techmap rules in the '$abc9_map' and '$abc9_unmap' designs for\0A\00", align 1
@.str.18 = private unnamed_addr constant [79 x i8] c"        bypassing sequential (* abc9_box *) modules using a combinatorial box\0A\00", align 1
@.str.19 = private unnamed_addr constant [82 x i8] c"        (named *_$abc9_byp). bypassing is necessary if sequential elements (e.g.\0A\00", align 1
@.str.20 = private unnamed_addr constant [81 x i8] c"        $dff, $mem, etc.) are discovered inside so that any combinatorial paths\0A\00", align 1
@.str.21 = private unnamed_addr constant [82 x i8] c"        will be correctly captured. this bypass box will only contain ports that\0A\00", align 1
@.str.22 = private unnamed_addr constant [79 x i8] c"        are referenced by a simple path declaration ($specify2 cell) inside a\0A\00", align 1
@.str.23 = private unnamed_addr constant [24 x i8] c"        specify block.\0A\00", align 1
@.str.24 = private unnamed_addr constant [15 x i8] c"    -prep_dff\0A\00", align 1
@.str.25 = private unnamed_addr constant [81 x i8] c"        select all (* abc9_flop *) modules instantiated in the design and store\0A\00", align 1
@.str.26 = private unnamed_addr constant [47 x i8] c"        in the named selection '$abc9_flops'.\0A\00", align 1
@.str.27 = private unnamed_addr constant [22 x i8] c"    -prep_dff_submod\0A\00", align 1
@.str.28 = private unnamed_addr constant [73 x i8] c"        within (* abc9_flop *) modules, rewrite all edge-sensitive path\0A\00", align 1
@.str.29 = private unnamed_addr constant [81 x i8] c"        declarations and $setup() timing checks ($specify3 and $specrule cells)\0A\00", align 1
@.str.30 = private unnamed_addr constant [80 x i8] c"        that share a 'DST' port with the $_DFF_[NP]_.Q port from this 'Q' port\0A\00", align 1
@.str.31 = private unnamed_addr constant [82 x i8] c"        to the DFF's 'D' port. this is to prepare such specify cells to be moved\0A\00", align 1
@.str.32 = private unnamed_addr constant [28 x i8] c"        into the flop box.\0A\00", align 1
@.str.33 = private unnamed_addr constant [21 x i8] c"    -prep_dff_unmap\0A\00", align 1
@.str.34 = private unnamed_addr constant [74 x i8] c"        populate the '$abc9_unmap' design with techmap rules for mapping\0A\00", align 1
@.str.35 = private unnamed_addr constant [80 x i8] c"        *_$abc9_flop cells back into their derived cell types (where the rules\0A\00", align 1
@.str.36 = private unnamed_addr constant [76 x i8] c"        created by -prep_hier will then map back to the original cell with\0A\00", align 1
@.str.37 = private unnamed_addr constant [22 x i8] c"        parameters).\0A\00", align 1
@.str.38 = private unnamed_addr constant [18 x i8] c"    -prep_delays\0A\00", align 1
@.str.39 = private unnamed_addr constant [78 x i8] c"        insert `$__ABC9_DELAY' blackbox cells into the design to account for\0A\00", align 1
@.str.40 = private unnamed_addr constant [33 x i8] c"        certain required times.\0A\00", align 1
@.str.41 = private unnamed_addr constant [16 x i8] c"    -break_scc\0A\00", align 1
@.str.42 = private unnamed_addr constant [76 x i8] c"        for an arbitrarily chosen cell in each unique SCC of each selected\0A\00", align 1
@.str.43 = private unnamed_addr constant [79 x i8] c"        module (tagged with an (* abc9_scc_id = <int> *) attribute) interrupt\0A\00", align 1
@.str.44 = private unnamed_addr constant [66 x i8] c"        all wires driven by this cell's outputs with a temporary\0A\00", align 1
@.str.45 = private unnamed_addr constant [52 x i8] c"        $__ABC9_SCC_BREAKER cell to break the SCC.\0A\00", align 1
@.str.46 = private unnamed_addr constant [18 x i8] c"    -prep_xaiger\0A\00", align 1
@.str.47 = private unnamed_addr constant [75 x i8] c"        prepare the design for XAIGER output. this includes computing the\0A\00", align 1
@.str.48 = private unnamed_addr constant [71 x i8] c"        topological ordering of ABC9 boxes, as well as preparing the \0A\00", align 1
@.str.49 = private unnamed_addr constant [72 x i8] c"        '$abc9_holes' design that contains the logic behaviour of ABC9\0A\00", align 1
@.str.50 = private unnamed_addr constant [21 x i8] c"        whiteboxes.\0A\00", align 1
@.str.51 = private unnamed_addr constant [10 x i8] c"    -dff\0A\00", align 1
@.str.52 = private unnamed_addr constant [70 x i8] c"        consider flop cells (those instantiating modules marked with\0A\00", align 1
@.str.53 = private unnamed_addr constant [60 x i8] c"        (* abc9_flop *)) during -prep_{delays,xaiger,box}.\0A\00", align 1
@.str.54 = private unnamed_addr constant [24 x i8] c"    -prep_lut <maxlut>\0A\00", align 1
@.str.55 = private unnamed_addr constant [74 x i8] c"        pre-compute the lut library by analysing all modules marked with\0A\00", align 1
@.str.56 = private unnamed_addr constant [32 x i8] c"        (* abc9_lut=<area> *).\0A\00", align 1
@.str.57 = private unnamed_addr constant [22 x i8] c"    -write_lut <dst>\0A\00", align 1
@.str.58 = private unnamed_addr constant [54 x i8] c"        write the pre-computed lut library to <dst>.\0A\00", align 1
@.str.59 = private unnamed_addr constant [15 x i8] c"    -prep_box\0A\00", align 1
@.str.60 = private unnamed_addr constant [74 x i8] c"        pre-compute the box library by analysing all modules marked with\0A\00", align 1
@.str.61 = private unnamed_addr constant [25 x i8] c"        (* abc9_box *).\0A\00", align 1
@.str.62 = private unnamed_addr constant [22 x i8] c"    -write_box <dst>\0A\00", align 1
@.str.63 = private unnamed_addr constant [54 x i8] c"        write the pre-computed box library to <dst>.\0A\00", align 1
@.str.64 = private unnamed_addr constant [18 x i8] c"    -reintegrate\0A\00", align 1
@.str.65 = private unnamed_addr constant [81 x i8] c"        for each selected module, re-intergrate the module '<module-name>$abc9'\0A\00", align 1
@.str.66 = private unnamed_addr constant [77 x i8] c"        by first recovering ABC9 boxes, and then stitching in the remaining\0A\00", align 1
@.str.67 = private unnamed_addr constant [37 x i8] c"        primary inputs and outputs.\0A\00", align 1

; Function Attrs: mustprogress uwtable
define internal void @_ZN12_GLOBAL__N_111Abc9OpsPass4helpEv(ptr noundef nonnull align 8 dereferenceable(104) %0) unnamed_addr #4 align 2 {
  %2 = alloca ptr, align 8
  store ptr %0, ptr %2, align 8
  call void (ptr, ...) @_ZN5Yosys3logEPKcz(ptr noundef @.str.3)
  call void (ptr, ...) @_ZN5Yosys3logEPKcz(ptr noundef @.str.4)
  call void (ptr, ...) @_ZN5Yosys3logEPKcz(ptr noundef @.str.3)
  call void (ptr, ...) @_ZN5Yosys3logEPKcz(ptr noundef @.str.5)
  call void (ptr, ...) @_ZN5Yosys3logEPKcz(ptr noundef @.str.6)
  call void (ptr, ...) @_ZN5Yosys3logEPKcz(ptr noundef @.str.7)
  call void (ptr, ...) @_ZN5Yosys3logEPKcz(ptr noundef @.str.3)
  call void (ptr, ...) @_ZN5Yosys3logEPKcz(ptr noundef @.str.8)
  call void (ptr, ...) @_ZN5Yosys3logEPKcz(ptr noundef @.str.9)
  call void (ptr, ...) @_ZN5Yosys3logEPKcz(ptr noundef @.str.10)
  call void (ptr, ...) @_ZN5Yosys3logEPKcz(ptr noundef @.str.3)
  call void (ptr, ...) @_ZN5Yosys3logEPKcz(ptr noundef @.str.11)
  call void (ptr, ...) @_ZN5Yosys3logEPKcz(ptr noundef @.str.12)
  call void (ptr, ...) @_ZN5Yosys3logEPKcz(ptr noundef @.str.13)
  call void (ptr, ...) @_ZN5Yosys3logEPKcz(ptr noundef @.str.14)
  call void (ptr, ...) @_ZN5Yosys3logEPKcz(ptr noundef @.str.15)
  call void (ptr, ...) @_ZN5Yosys3logEPKcz(ptr noundef @.str.3)
  call void (ptr, ...) @_ZN5Yosys3logEPKcz(ptr noundef @.str.16)
  call void (ptr, ...) @_ZN5Yosys3logEPKcz(ptr noundef @.str.17)
  call void (ptr, ...) @_ZN5Yosys3logEPKcz(ptr noundef @.str.18)
  call void (ptr, ...) @_ZN5Yosys3logEPKcz(ptr noundef @.str.19)
  call void (ptr, ...) @_ZN5Yosys3logEPKcz(ptr noundef @.str.20)
  call void (ptr, ...) @_ZN5Yosys3logEPKcz(ptr noundef @.str.21)
  call void (ptr, ...) @_ZN5Yosys3logEPKcz(ptr noundef @.str.22)
  call void (ptr, ...) @_ZN5Yosys3logEPKcz(ptr noundef @.str.23)
  call void (ptr, ...) @_ZN5Yosys3logEPKcz(ptr noundef @.str.3)
  call void (ptr, ...) @_ZN5Yosys3logEPKcz(ptr noundef @.str.24)
  call void (ptr, ...) @_ZN5Yosys3logEPKcz(ptr noundef @.str.25)
  call void (ptr, ...) @_ZN5Yosys3logEPKcz(ptr noundef @.str.26)
  call void (ptr, ...) @_ZN5Yosys3logEPKcz(ptr noundef @.str.3)
  call void (ptr, ...) @_ZN5Yosys3logEPKcz(ptr noundef @.str.27)
  call void (ptr, ...) @_ZN5Yosys3logEPKcz(ptr noundef @.str.28)
  call void (ptr, ...) @_ZN5Yosys3logEPKcz(ptr noundef @.str.29)
  call void (ptr, ...) @_ZN5Yosys3logEPKcz(ptr noundef @.str.30)
  call void (ptr, ...) @_ZN5Yosys3logEPKcz(ptr noundef @.str.31)
  call void (ptr, ...) @_ZN5Yosys3logEPKcz(ptr noundef @.str.32)
  call void (ptr, ...) @_ZN5Yosys3logEPKcz(ptr noundef @.str.3)
  call void (ptr, ...) @_ZN5Yosys3logEPKcz(ptr noundef @.str.33)
  call void (ptr, ...) @_ZN5Yosys3logEPKcz(ptr noundef @.str.34)
  call void (ptr, ...) @_ZN5Yosys3logEPKcz(ptr noundef @.str.35)
  call void (ptr, ...) @_ZN5Yosys3logEPKcz(ptr noundef @.str.36)
  call void (ptr, ...) @_ZN5Yosys3logEPKcz(ptr noundef @.str.37)
  call void (ptr, ...) @_ZN5Yosys3logEPKcz(ptr noundef @.str.3)
  call void (ptr, ...) @_ZN5Yosys3logEPKcz(ptr noundef @.str.38)
  call void (ptr, ...) @_ZN5Yosys3logEPKcz(ptr noundef @.str.39)
  call void (ptr, ...) @_ZN5Yosys3logEPKcz(ptr noundef @.str.40)
  call void (ptr, ...) @_ZN5Yosys3logEPKcz(ptr noundef @.str.3)
  call void (ptr, ...) @_ZN5Yosys3logEPKcz(ptr noundef @.str.41)
  call void (ptr, ...) @_ZN5Yosys3logEPKcz(ptr noundef @.str.42)
  call void (ptr, ...) @_ZN5Yosys3logEPKcz(ptr noundef @.str.43)
  call void (ptr, ...) @_ZN5Yosys3logEPKcz(ptr noundef @.str.44)
  call void (ptr, ...) @_ZN5Yosys3logEPKcz(ptr noundef @.str.45)
  call void (ptr, ...) @_ZN5Yosys3logEPKcz(ptr noundef @.str.3)
  call void (ptr, ...) @_ZN5Yosys3logEPKcz(ptr noundef @.str.46)
  call void (ptr, ...) @_ZN5Yosys3logEPKcz(ptr noundef @.str.47)
  call void (ptr, ...) @_ZN5Yosys3logEPKcz(ptr noundef @.str.48)
  call void (ptr, ...) @_ZN5Yosys3logEPKcz(ptr noundef @.str.49)
  call void (ptr, ...) @_ZN5Yosys3logEPKcz(ptr noundef @.str.50)
  call void (ptr, ...) @_ZN5Yosys3logEPKcz(ptr noundef @.str.3)
  call void (ptr, ...) @_ZN5Yosys3logEPKcz(ptr noundef @.str.51)
  call void (ptr, ...) @_ZN5Yosys3logEPKcz(ptr noundef @.str.52)
  call void (ptr, ...) @_ZN5Yosys3logEPKcz(ptr noundef @.str.53)
  call void (ptr, ...) @_ZN5Yosys3logEPKcz(ptr noundef @.str.3)
  call void (ptr, ...) @_ZN5Yosys3logEPKcz(ptr noundef @.str.54)
  call void (ptr, ...) @_ZN5Yosys3logEPKcz(ptr noundef @.str.55)
  call void (ptr, ...) @_ZN5Yosys3logEPKcz(ptr noundef @.str.56)
  call void (ptr, ...) @_ZN5Yosys3logEPKcz(ptr noundef @.str.3)
  call void (ptr, ...) @_ZN5Yosys3logEPKcz(ptr noundef @.str.57)
  call void (ptr, ...) @_ZN5Yosys3logEPKcz(ptr noundef @.str.58)
  call void (ptr, ...) @_ZN5Yosys3logEPKcz(ptr noundef @.str.3)
  call void (ptr, ...) @_ZN5Yosys3logEPKcz(ptr noundef @.str.59)
  call void (ptr, ...) @_ZN5Yosys3logEPKcz(ptr noundef @.str.60)
  call void (ptr, ...) @_ZN5Yosys3logEPKcz(ptr noundef @.str.61)
  call void (ptr, ...) @_ZN5Yosys3logEPKcz(ptr noundef @.str.3)
  call void (ptr, ...) @_ZN5Yosys3logEPKcz(ptr noundef @.str.62)
  call void (ptr, ...) @_ZN5Yosys3logEPKcz(ptr noundef @.str.63)
  call void (ptr, ...) @_ZN5Yosys3logEPKcz(ptr noundef @.str.3)
  call void (ptr, ...) @_ZN5Yosys3logEPKcz(ptr noundef @.str.64)
  call void (ptr, ...) @_ZN5Yosys3logEPKcz(ptr noundef @.str.65)
  call void (ptr, ...) @_ZN5Yosys3logEPKcz(ptr noundef @.str.66)
  call void (ptr, ...) @_ZN5Yosys3logEPKcz(ptr noundef @.str.67)
  call void (ptr, ...) @_ZN5Yosys3logEPKcz(ptr noundef @.str.3)
  ret void
}